target datalayout = "e-m:e-p270:32:32-p271:32:32-p272:64:64-i64:64-i128:128-f80:128-n8:16:32:64-S128"
target triple = "x86_64-pc-linux-gnu"

%"struct.std::_Rb_tree_header" = type { %"struct.std::_Rb_tree_node_base", i64 }
%"struct.std::_Rb_tree_node_base" = type { i32, ptr, ptr, ptr }
%"struct.std::_Rb_tree_key_compare.5" = type { %"struct.std::less.6" }
%"struct.std::less.6" = type { i8 }
%"class.std::__cxx11::basic_string" = type { %"struct.std::__cxx11::basic_string<char>::_Alloc_hider", i64, %union.anon }
%"struct.std::__cxx11::basic_string<char>::_Alloc_hider" = type { ptr }
%union.anon = type { i64, [8 x i8] }
%struct.JsonnetJsonValue = type { i32, %"class.std::__cxx11::basic_string", double, %"class.std::vector", %"class.std::map.19" }
%"class.std::vector" = type { %"struct.std::_Vector_base" }
%"struct.std::_Vector_base" = type { %"struct.std::_Vector_base<std::unique_ptr<JsonnetJsonValue>, std::allocator<std::unique_ptr<JsonnetJsonValue>>>::_Vector_impl" }
%"struct.std::_Vector_base<std::unique_ptr<JsonnetJsonValue>, std::allocator<std::unique_ptr<JsonnetJsonValue>>>::_Vector_impl" = type { %"struct.std::_Vector_base<std::unique_ptr<JsonnetJsonValue>, std::allocator<std::unique_ptr<JsonnetJsonValue>>>::_Vector_impl_data" }
%"struct.std::_Vector_base<std::unique_ptr<JsonnetJsonValue>, std::allocator<std::unique_ptr<JsonnetJsonValue>>>::_Vector_impl_data" = type { ptr, ptr, ptr }
%"class.std::map.19" = type { %"class.std::_Rb_tree.20" }
%"class.std::_Rb_tree.20" = type { %"struct.std::_Rb_tree<std::__cxx11::basic_string<char>, std::pair<const std::__cxx11::basic_string<char>, std::unique_ptr<JsonnetJsonValue>>, std::_Select1st<std::pair<const std::__cxx11::basic_string<char>, std::unique_ptr<JsonnetJsonValue>>>, std::less<std::__cxx11::basic_string<char>>>::_Rb_tree_impl" }
%"struct.std::_Rb_tree<std::__cxx11::basic_string<char>, std::pair<const std::__cxx11::basic_string<char>, std::unique_ptr<JsonnetJsonValue>>, std::_Select1st<std::pair<const std::__cxx11::basic_string<char>, std::unique_ptr<JsonnetJsonValue>>>, std::less<std::__cxx11::basic_string<char>>>::_Rb_tree_impl" = type { %"struct.std::_Rb_tree_key_compare.5", %"struct.std::_Rb_tree_header" }

; Function Attrs: noreturn nounwind uwtable
define linkonce_odr hidden void @__clang_call_terminate(ptr noundef %0) #11 comdat {
  %2 = call ptr @__cxa_begin_catch(ptr %0) #3
  call void @_ZSt9terminatev() #20
  unreachable
}

; Function Attrs: mustprogress nounwind uwtable
define linkonce_odr void @_ZNSt15_Rb_tree_header8_M_resetEv(ptr noundef nonnull align 8 dereferenceable(40) %0) #5 comdat align 2 {
  %2 = alloca ptr, align 8
  store ptr %0, ptr %2, align 8
  %3 = load ptr, ptr %2, align 8
  %4 = getelementptr inbounds %"struct.std::_Rb_tree_header", ptr %3, i32 0, i32 0
  %5 = getelementptr inbounds %"struct.std::_Rb_tree_node_base", ptr %4, i32 0, i32 1
  store ptr null, ptr %5, align 8
  %6 = getelementptr inbounds %"struct.std::_Rb_tree_header", ptr %3, i32 0, i32 0
  %7 = getelementptr inbounds %"struct.std::_Rb_tree_header", ptr %3, i32 0, i32 0
  %8 = getelementptr inbounds %"struct.std::_Rb_tree_node_base", ptr %7, i32 0, i32 2
  store ptr %6, ptr %8, align 8
  %9 = getelementptr inbounds %"struct.std::_Rb_tree_header", ptr %3, i32 0, i32 0
  %10 = getelementptr inbounds %"struct.std::_Rb_tree_header", ptr %3, i32 0, i32 0
  %11 = getelementptr inbounds %"struct.std::_Rb_tree_node_base", ptr %10, i32 0, i32 3
  store ptr %9, ptr %11, align 8
  %12 = getelementptr inbounds %"struct.std::_Rb_tree_header", ptr %3, i32 0, i32 1
  store i64 0, ptr %12, align 8
  ret void
}

; Function Attrs: mustprogress nounwind uwtable
define linkonce_odr void @_ZNSt15__new_allocatorISt13_Rb_tree_nodeISt4pairIKNSt7__cxx1112basic_stringIcSt11char_traitsIcESaIcEEESt10unique_ptrI16JsonnetJsonValueSt14default_deleteISA_EEEEEC2Ev(ptr noundef nonnull align 1 dereferenceable(1) %0) unnamed_addr #5 comdat align 2 {
  %2 = alloca ptr, align 8
  store ptr %0, ptr %2, align 8
  ret void
}

; Function Attrs: mustprogress nounwind uwtable
define linkonce_odr void @_ZNSt15__new_allocatorISt10unique_ptrI16JsonnetJsonValueSt14default_deleteIS1_EEEC2Ev(ptr noundef nonnull align 1 dereferenceable(1) %0) unnamed_addr #5 comdat align 2 {
  %2 = alloca ptr, align 8
  store ptr %0, ptr %2, align 8
  ret void
}

; Function Attrs: mustprogress nounwind uwtable
define linkonce_odr void @_ZNSt15_Rb_tree_headerC2Ev(ptr noundef nonnull align 8 dereferenceable(40) %0) unnamed_addr #5 comdat align 2 personality ptr @__gxx_personality_v0 {
  %2 = alloca ptr, align 8
  store ptr %0, ptr %2, align 8
  %3 = load ptr, ptr %2, align 8
  %4 = getelementptr inbounds %"struct.std::_Rb_tree_header", ptr %3, i32 0, i32 0
  %5 = getelementptr inbounds %"struct.std::_Rb_tree_node_base", ptr %4, i32 0, i32 0
  store i32 0, ptr %5, align 8
  invoke void @_ZNSt15_Rb_tree_header8_M_resetEv(ptr noundef nonnull align 8 dereferenceable(40) %3)
          to label %6 unwind label %7

6:                                                ; preds = %1
  ret void

7:                                                ; preds = %1
  %8 = landingpad { ptr, i32 }
          catch ptr null
  %9 = extractvalue { ptr, i32 } %8, 0
  call void @__clang_call_terminate(ptr %9) #20
  unreachable
}

; Function Attrs: mustprogress nounwind uwtable
define linkonce_odr void @_ZNSt20_Rb_tree_key_compareISt4lessINSt7__cxx1112basic_stringIcSt11char_traitsIcESaIcEEEEEC2Ev(ptr noundef nonnull align 1 dereferenceable(1) %0) unnamed_addr #5 comdat align 2 {
  %2 = alloca ptr, align 8
  store ptr %0, ptr %2, align 8
  ret void
}

; Function Attrs: mustprogress nounwind uwtable
define linkonce_odr void @_ZNSaISt13_Rb_tree_nodeISt4pairIKNSt7__cxx1112basic_stringIcSt11char_traitsIcESaIcEEESt10unique_ptrI16JsonnetJsonValueSt14default_deleteIS9_EEEEEC2Ev(ptr noundef nonnull align 1 dereferenceable(1) %0) unnamed_addr #5 comdat align 2 {
  %2 = alloca ptr, align 8
  store ptr %0, ptr %2, align 8
  %3 = load ptr, ptr %2, align 8
  call void @_ZNSt15__new_allocatorISt13_Rb_tree_nodeISt4pairIKNSt7__cxx1112basic_stringIcSt11char_traitsIcESaIcEEESt10unique_ptrI16JsonnetJsonValueSt14default_deleteISA_EEEEEC2Ev(ptr noundef nonnull align 1 dereferenceable(1) %3) #3
  ret void
}

; Function Attrs: mustprogress nounwind uwtable
define linkonce_odr void @_ZNSt12_Vector_baseISt10unique_ptrI16JsonnetJsonValueSt14default_deleteIS1_EESaIS4_EE17_Vector_impl_dataC2Ev(ptr noundef nonnull align 8 dereferenceable(24) %0) unnamed_addr #5 comdat align 2 {
  %2 = alloca ptr, align 8
  store ptr %0, ptr %2, align 8
  %3 = load ptr, ptr %2, align 8
  %4 = getelementptr inbounds %"struct.std::_Vector_base<std::unique_ptr<JsonnetJsonValue>, std::allocator<std::unique_ptr<JsonnetJsonValue>>>::_Vector_impl_data", ptr %3, i32 0, i32 0
  store ptr null, ptr %4, align 8
  %5 = getelementptr inbounds %"struct.std::_Vector_base<std::unique_ptr<JsonnetJsonValue>, std::allocator<std::unique_ptr<JsonnetJsonValue>>>::_Vector_impl_data", ptr %3, i32 0, i32 1
  store ptr null, ptr %5, align 8
  %6 = getelementptr inbounds %"struct.std::_Vector_base<std::unique_ptr<JsonnetJsonValue>, std::allocator<std::unique_ptr<JsonnetJsonValue>>>::_Vector_impl_data", ptr %3, i32 0, i32 2
  store ptr null, ptr %6, align 8
  ret void
}

; Function Attrs: mustprogress nounwind uwtable
define linkonce_odr void @_ZNSaISt10unique_ptrI16JsonnetJsonValueSt14default_deleteIS0_EEEC2Ev(ptr noundef nonnull align 1 dereferenceable(1) %0) unnamed_addr #5 comdat align 2 {
  %2 = alloca ptr, align 8
  store ptr %0, ptr %2, align 8
  %3 = load ptr, ptr %2, align 8
  call void @_ZNSt15__new_allocatorISt10unique_ptrI16JsonnetJsonValueSt14default_deleteIS1_EEEC2Ev(ptr noundef nonnull align 1 dereferenceable(1) %3) #3
  ret void
}

; Function Attrs: mustprogress nounwind uwtable
define linkonce_odr void @_ZNSt8_Rb_treeINSt7__cxx1112basic_stringIcSt11char_traitsIcESaIcEEESt4pairIKS5_St10unique_ptrI16JsonnetJsonValueSt14default_deleteIS9_EEESt10_Select1stISD_ESt4lessIS5_ESaISD_EE13_Rb_tree_implISH_Lb1EEC2Ev(ptr noundef nonnull align 8 dereferenceable(48) %0) unnamed_addr #5 comdat align 2 {
  %2 = alloca ptr, align 8
  store ptr %0, ptr %2, align 8
  %3 = load ptr, ptr %2, align 8
  call void @_ZNSaISt13_Rb_tree_nodeISt4pairIKNSt7__cxx1112basic_stringIcSt11char_traitsIcESaIcEEESt10unique_ptrI16JsonnetJsonValueSt14default_deleteIS9_EEEEEC2Ev(ptr noundef nonnull align 1 dereferenceable(1) %3) #3
  call void @_ZNSt20_Rb_tree_key_compareISt4lessINSt7__cxx1112basic_stringIcSt11char_traitsIcESaIcEEEEEC2Ev(ptr noundef nonnull align 1 dereferenceable(1) %3) #3
  %4 = getelementptr inbounds i8, ptr %3, i64 8
  call void @_ZNSt15_Rb_tree_headerC2Ev(ptr noundef nonnull align 8 dereferenceable(40) %4) #3
  ret void
}

; Function Attrs: mustprogress nounwind uwtable
define linkonce_odr void @_ZNSt12_Vector_baseISt10unique_ptrI16JsonnetJsonValueSt14default_deleteIS1_EESaIS4_EE12_Vector_implC2Ev(ptr noundef nonnull align 8 dereferenceable(24) %0) unnamed_addr #5 comdat align 2 {
  %2 = alloca ptr, align 8
  store ptr %0, ptr %2, align 8
  %3 = load ptr, ptr %2, align 8
  call void @_ZNSaISt10unique_ptrI16JsonnetJsonValueSt14default_deleteIS0_EEEC2Ev(ptr noundef nonnull align 1 dereferenceable(1) %3) #3
  call void @_ZNSt12_Vector_baseISt10unique_ptrI16JsonnetJsonValueSt14default_deleteIS1_EESaIS4_EE17_Vector_impl_dataC2Ev(ptr noundef nonnull align 8 dereferenceable(24) %3) #3
  ret void
}

; Function Attrs: mustprogress nounwind uwtable
define linkonce_odr void @_ZNSt8_Rb_treeINSt7__cxx1112basic_stringIcSt11char_traitsIcESaIcEEESt4pairIKS5_St10unique_ptrI16JsonnetJsonValueSt14default_deleteIS9_EEESt10_Select1stISD_ESt4lessIS5_ESaISD_EEC2Ev(ptr noundef nonnull align 8 dereferenceable(48) %0) unnamed_addr #5 comdat align 2 {
  %2 = alloca ptr, align 8
  store ptr %0, ptr %2, align 8
  %3 = load ptr, ptr %2, align 8
  %4 = getelementptr inbounds %"class.std::_Rb_tree.20", ptr %3, i32 0, i32 0
  call void @_ZNSt8_Rb_treeINSt7__cxx1112basic_stringIcSt11char_traitsIcESaIcEEESt4pairIKS5_St10unique_ptrI16JsonnetJsonValueSt14default_deleteIS9_EEESt10_Select1stISD_ESt4lessIS5_ESaISD_EE13_Rb_tree_implISH_Lb1EEC2Ev(ptr noundef nonnull align 8 dereferenceable(48) %4) #3
  ret void
}

; Function Attrs: mustprogress nounwind uwtable
define linkonce_odr void @_ZNSt12_Vector_baseISt10unique_ptrI16JsonnetJsonValueSt14default_deleteIS1_EESaIS4_EEC2Ev(ptr noundef nonnull align 8 dereferenceable(24) %0) unnamed_addr #5 comdat align 2 {
  %2 = alloca ptr, align 8
  store ptr %0, ptr %2, align 8
  %3 = load ptr, ptr %2, align 8
  %4 = getelementptr inbounds %"struct.std::_Vector_base", ptr %3, i32 0, i32 0
  call void @_ZNSt12_Vector_baseISt10unique_ptrI16JsonnetJsonValueSt14default_deleteIS1_EESaIS4_EE12_Vector_implC2Ev(ptr noundef nonnull align 8 dereferenceable(24) %4) #3
  ret void
}

; Function Attrs: mustprogress nounwind uwtable
define linkonce_odr void @_ZNSt3mapINSt7__cxx1112basic_stringIcSt11char_traitsIcESaIcEEESt10unique_ptrI16JsonnetJsonValueSt14default_deleteIS7_EESt4lessIS5_ESaISt4pairIKS5_SA_EEEC2Ev(ptr noundef nonnull align 8 dereferenceable(48) %0) unnamed_addr #5 comdat align 2 {
  %2 = alloca ptr, align 8
  store ptr %0, ptr %2, align 8
  %3 = load ptr, ptr %2, align 8
  %4 = getelementptr inbounds %"class.std::map.19", ptr %3, i32 0, i32 0
  call void @_ZNSt8_Rb_treeINSt7__cxx1112basic_stringIcSt11char_traitsIcESaIcEEESt4pairIKS5_St10unique_ptrI16JsonnetJsonValueSt14default_deleteIS9_EEESt10_Select1stISD_ESt4lessIS5_ESaISD_EEC2Ev(ptr noundef nonnull align 8 dereferenceable(48) %4) #3
  ret void
}

; Function Attrs: mustprogress nounwind uwtable
define linkonce_odr void @_ZNSt6vectorISt10unique_ptrI16JsonnetJsonValueSt14default_deleteIS1_EESaIS4_EEC2Ev(ptr noundef nonnull align 8 dereferenceable(24) %0) unnamed_addr #5 comdat align 2 {
  %2 = alloca ptr, align 8
  store ptr %0, ptr %2, align 8
  %3 = load ptr, ptr %2, align 8
  call void @_ZNSt12_Vector_baseISt10unique_ptrI16JsonnetJsonValueSt14default_deleteIS1_EESaIS4_EEC2Ev(ptr noundef nonnull align 8 dereferenceable(24) %3) #3
  ret void
}

; Function Attrs: mustprogress nounwind uwtable
define linkonce_odr void @_ZN16JsonnetJsonValueC2Ev(ptr noundef nonnull align 8 dereferenceable(120) %0) unnamed_addr #5 comdat align 2 {
  %2 = alloca ptr, align 8
  store ptr %0, ptr %2, align 8
  %3 = load ptr, ptr %2, align 8
  %4 = getelementptr inbounds %struct.JsonnetJsonValue, ptr %3, i32 0, i32 1
  call void @_ZNSt7__cxx1112basic_stringIcSt11char_traitsIcESaIcEEC1Ev(ptr noundef nonnull align 8 dereferenceable(32) %4) #3
  %5 = getelementptr inbounds %struct.JsonnetJsonValue, ptr %3, i32 0, i32 3
  call void @_ZNSt6vectorISt10unique_ptrI16JsonnetJsonValueSt14default_deleteIS1_EESaIS4_EEC2Ev(ptr noundef nonnull align 8 dereferenceable(24) %5) #3
  %6 = getelementptr inbounds %struct.JsonnetJsonValue, ptr %3, i32 0, i32 4
  call void @_ZNSt3mapINSt7__cxx1112basic_stringIcSt11char_traitsIcESaIcEEESt10unique_ptrI16JsonnetJsonValueSt14default_deleteIS7_EESt4lessIS5_ESaISt4pairIKS5_SA_EEEC2Ev(ptr noundef nonnull align 8 dereferenceable(48) %6) #3
  ret void
}

; Function Attrs: mustprogress uwtable
define ptr @jsonnet_json_make_object(ptr noundef %0) #4 {
  %2 = alloca ptr, align 8
  %3 = alloca ptr, align 8
  store ptr %0, ptr %2, align 8
  %4 = call noalias noundef nonnull ptr @_Znwm(i64 noundef 120) #19
  call void @llvm.memset.p0.i64(ptr align 16 %4, i8 0, i64 120, i1 false)
  call void @_ZN16JsonnetJsonValueC2Ev(ptr noundef nonnull align 8 dereferenceable(120) %4) #3
  store ptr %4, ptr %3, align 8
  %5 = load ptr, ptr %3, align 8
  %6 = getelementptr inbounds %struct.JsonnetJsonValue, ptr %5, i32 0, i32 0
  store i32 4, ptr %6, align 8
  %7 = load ptr, ptr %3, align 8
  ret ptr %7
}